target datalayout = "e-m:e-p270:32:32-p271:32:32-p272:64:64-i64:64-i128:128-f80:128-n8:16:32:64-S128"
target triple = "x86_64-pc-linux-gnu"

%struct._zend_executor_globals = type { %struct._zval_struct, %struct._zval_struct, [32 x ptr], ptr, ptr, %struct._zend_array, %struct._zend_array, ptr, i32, i32, ptr, ptr, ptr, ptr, ptr, ptr, i64, ptr, ptr, i32, i32, i64, i32, i32, i32, i8, i8, %struct.zend_atomic_bool_s, %struct.zend_atomic_bool_s, ptr, i64, ptr, ptr, %struct._zend_array, %struct._zend_array, i32, i8, %struct._zval_struct, %struct._zval_struct, %struct._zend_stack, %struct._zend_stack, %struct._zend_stack, ptr, i32, i32, i64, ptr, ptr, ptr, %struct._zend_objects_store, ptr, ptr, ptr, [3 x %struct._zend_op], ptr, i8, i8, i64, i32, i32, ptr, [16 x %struct._HashTableIterator], ptr, %union._zend_function, %struct._zend_op, %struct._zend_array, i64, %struct.zend_get_gc_buffer, ptr, ptr, ptr, i64, i8, i32, ptr, ptr, i64, %struct._zend_call_stack, i64, i64, [6 x ptr] }
%struct.zend_atomic_bool_s = type { i8 }
%struct._zval_struct = type { %union._zend_value, %union.anon, %union.anon.2 }
%union._zend_value = type { i64 }
%union.anon = type { i32 }
%union.anon.2 = type { i32 }
%struct._zend_stack = type { i32, i32, i32, ptr }
%struct._zend_objects_store = type { ptr, i32, i32, i32 }
%struct._HashTableIterator = type { ptr, i32, i32 }
%union._zend_function = type { %struct._zend_op_array }
%struct._zend_op_array = type { i8, [3 x i8], i32, ptr, ptr, ptr, i32, i32, ptr, ptr, ptr, ptr, i32, i32, i32, i32, ptr, ptr, ptr, ptr, ptr, i32, i32, ptr, ptr, ptr, i32, i32, i32, i32, ptr, ptr, [6 x ptr] }
%struct._zend_op = type { ptr, %union._znode_op, %union._znode_op, %union._znode_op, i32, i32, i8, i8, i8, i8 }
%union._znode_op = type { i32 }
%struct._zend_array = type { %struct._zend_refcounted_h, %union.anon.4, i32, %union.anon.6, i32, i32, i32, i32, i64, ptr }
%struct._zend_refcounted_h = type { i32, %union.anon.3 }
%union.anon.3 = type { i32 }
%union.anon.4 = type { i32 }
%union.anon.6 = type { ptr }
%struct.zend_get_gc_buffer = type { ptr, ptr, ptr }
%struct._zend_call_stack = type { ptr, i64 }
%struct._zend_execute_data = type { ptr, ptr, ptr, ptr, %struct._zval_struct, ptr, ptr, ptr, ptr }
%struct._zend_object = type { %struct._zend_refcounted_h, i32, ptr, ptr, ptr, [1 x %struct._zval_struct] }
%struct._zend_class_entry = type { i8, ptr, %union.anon.15, i32, i32, i32, i32, ptr, ptr, ptr, %struct._zend_array, %struct._zend_array, %struct._zend_array, ptr, ptr, ptr, ptr, ptr, ptr, ptr, ptr, ptr, ptr, ptr, ptr, ptr, ptr, ptr, ptr, ptr, ptr, ptr, %union.anon.16, ptr, ptr, ptr, ptr, i32, i32, %union.anon.17, ptr, ptr, ptr, ptr, i32, ptr, ptr, %union.anon.18 }
%union.anon.15 = type { ptr }
%union.anon.16 = type { ptr }
%union.anon.17 = type { ptr }
%union.anon.18 = type { %struct.anon.19 }
%struct.anon.19 = type { ptr, i32, i32 }
%struct._zend_string = type { %struct._zend_refcounted_h, i64, i64, [1 x i8] }
%struct._spl_dual_it_object = type { %struct.anon.8, %struct.anon.9, i32, %union.anon.10, %struct._zend_object }
%struct.anon.8 = type { %struct._zval_struct, ptr, ptr, ptr }
%struct.anon.9 = type { %struct._zval_struct, %struct._zval_struct, i64 }
%union.anon.10 = type { %struct.anon.12 }
%struct.anon.12 = type { i64, ptr, %struct._zval_struct, %struct._zval_struct }

@executor_globals = external global %struct._zend_executor_globals, align 8
@.str = private unnamed_addr constant [75 x i8] c"The object is in an invalid state as the parent constructor was not called\00", align 1
@.str.8 = private unnamed_addr constant [2 x i8] c"S\00", align 1
@spl_ce_BadMethodCallException = external global ptr, align 8
@.str.15 = private unnamed_addr constant [64 x i8] c"%s does not use a full cache (see CachingIterator::__construct)\00", align 1

; Function Attrs: nounwind uwtable
define internal ptr @spl_dual_it_from_obj(ptr noundef %0) #0 {
  %2 = alloca ptr, align 8
  store ptr %0, ptr %2, align 8
  %3 = load ptr, ptr %2, align 8
  %4 = getelementptr inbounds i8, ptr %3, i64 -136
  ret ptr %4
}

; Function Attrs: nounwind uwtable
define hidden void @zim_CachingIterator_offsetExists(ptr noundef %0, ptr noundef %1) #0 {
  %3 = alloca ptr, align 8
  %4 = alloca ptr, align 8
  %5 = alloca ptr, align 8
  %6 = alloca i64, align 8
  %7 = alloca i1, align 1
  %8 = alloca ptr, align 8
  %9 = alloca i64, align 8
  %10 = alloca ptr, align 8
  %11 = alloca ptr, align 8
  %12 = alloca i1, align 1
  %13 = alloca ptr, align 8
  %14 = alloca ptr, align 8
  %15 = alloca i64, align 8
  %16 = alloca ptr, align 8
  %17 = alloca ptr, align 8
  %18 = alloca ptr, align 8
  %19 = alloca ptr, align 8
  %20 = alloca ptr, align 8
  store ptr %0, ptr %16, align 8
  store ptr %1, ptr %17, align 8
  %21 = load ptr, ptr %16, align 8
  %22 = getelementptr inbounds %struct._zend_execute_data, ptr %21, i32 0, i32 4
  %23 = getelementptr inbounds %struct._zval_struct, ptr %22, i32 0, i32 2
  %24 = load i32, ptr %23, align 4
  %25 = call i32 (i32, ptr, ...) @zend_parse_parameters(i32 noundef %24, ptr noundef @.str.8, ptr noundef %19)
  %26 = icmp eq i32 %25, -1
  br i1 %26, label %27, label %32

27:                                               ; preds = %2
  br label %28

28:                                               ; preds = %27
  %29 = load ptr, ptr getelementptr inbounds (%struct._zend_executor_globals, ptr @executor_globals, i32 0, i32 50), align 8
  %30 = icmp ne ptr %29, null
  call void @llvm.assume(i1 %30)
  br label %146

31:                                               ; No predecessors!
  br label %32

32:                                               ; preds = %31, %2
  br label %33

33:                                               ; preds = %32
  %34 = load ptr, ptr %16, align 8
  %35 = getelementptr inbounds %struct._zend_execute_data, ptr %34, i32 0, i32 4
  %36 = getelementptr inbounds %struct._zval_struct, ptr %35, i32 0, i32 0
  %37 = load ptr, ptr %36, align 8
  %38 = call ptr @spl_dual_it_from_obj(ptr noundef %37)
  store ptr %38, ptr %20, align 8
  %39 = load ptr, ptr %20, align 8
  %40 = getelementptr inbounds %struct._spl_dual_it_object, ptr %39, i32 0, i32 2
  %41 = load i32, ptr %40, align 8
  %42 = icmp eq i32 %41, -1
  br i1 %42, label %43, label %48

43:                                               ; preds = %33
  call void (ptr, ptr, ...) @zend_throw_error(ptr noundef null, ptr noundef @.str)
  br label %44

44:                                               ; preds = %43
  %45 = load ptr, ptr getelementptr inbounds (%struct._zend_executor_globals, ptr @executor_globals, i32 0, i32 50), align 8
  %46 = icmp ne ptr %45, null
  call void @llvm.assume(i1 %46)
  br label %146

47:                                               ; No predecessors!
  br label %48

48:                                               ; preds = %47, %33
  %49 = load ptr, ptr %20, align 8
  store ptr %49, ptr %18, align 8
  br label %50

50:                                               ; preds = %48
  %51 = load ptr, ptr %18, align 8
  %52 = getelementptr inbounds %struct._spl_dual_it_object, ptr %51, i32 0, i32 3
  %53 = getelementptr inbounds %struct.anon.12, ptr %52, i32 0, i32 0
  %54 = load i64, ptr %53, align 8
  %55 = and i64 %54, 256
  %56 = icmp ne i64 %55, 0
  br i1 %56, label %74, label %57

57:                                               ; preds = %50
  %58 = load ptr, ptr @spl_ce_BadMethodCallException, align 8
  %59 = load ptr, ptr %16, align 8
  %60 = getelementptr inbounds %struct._zend_execute_data, ptr %59, i32 0, i32 4
  %61 = getelementptr inbounds %struct._zval_struct, ptr %60, i32 0, i32 0
  %62 = load ptr, ptr %61, align 8
  %63 = getelementptr inbounds %struct._zend_object, ptr %62, i32 0, i32 2
  %64 = load ptr, ptr %63, align 8
  %65 = getelementptr inbounds %struct._zend_class_entry, ptr %64, i32 0, i32 1
  %66 = load ptr, ptr %65, align 8
  %67 = getelementptr inbounds %struct._zend_string, ptr %66, i32 0, i32 3
  %68 = getelementptr inbounds [1 x i8], ptr %67, i64 0, i64 0
  %69 = call ptr (ptr, i64, ptr, ...) @zend_throw_exception_ex(ptr noundef %58, i64 noundef 0, ptr noundef @.str.15, ptr noundef %68)
  br label %70

70:                                               ; preds = %57
  %71 = load ptr, ptr getelementptr inbounds (%struct._zend_executor_globals, ptr @executor_globals, i32 0, i32 50), align 8
  %72 = icmp ne ptr %71, null
  call void @llvm.assume(i1 %72)
  br label %146

73:                                               ; No predecessors!
  br label %74

74:                                               ; preds = %73, %50
  br label %75

75:                                               ; preds = %74
  br label %76

76:                                               ; preds = %75
  %77 = load ptr, ptr %18, align 8
  %78 = getelementptr inbounds %struct._spl_dual_it_object, ptr %77, i32 0, i32 3
  %79 = getelementptr inbounds %struct.anon.12, ptr %78, i32 0, i32 3
  %80 = getelementptr inbounds %struct._zval_struct, ptr %79, i32 0, i32 0
  %81 = load ptr, ptr %80, align 8
  %82 = load ptr, ptr %19, align 8
  store ptr %81, ptr %13, align 8
  store ptr %82, ptr %14, align 8
  %83 = load ptr, ptr %14, align 8
  %84 = getelementptr inbounds %struct._zend_string, ptr %83, i32 0, i32 3
  %85 = load ptr, ptr %14, align 8
  %86 = getelementptr inbounds %struct._zend_string, ptr %85, i32 0, i32 2
  %87 = load i64, ptr %86, align 8
  store ptr %84, ptr %8, align 8
  store i64 %87, ptr %9, align 8
  store ptr %15, ptr %10, align 8
  %88 = load ptr, ptr %8, align 8
  store ptr %88, ptr %11, align 8
  %89 = load ptr, ptr %11, align 8
  %90 = load i8, ptr %89, align 1
  %91 = sext i8 %90 to i32
  %92 = icmp sgt i32 %91, 57
  br i1 %92, label %93, label %94

93:                                               ; preds = %76
  store i1 false, ptr %7, align 1
  br label %124

94:                                               ; preds = %76
  %95 = load ptr, ptr %11, align 8
  %96 = load i8, ptr %95, align 1
  %97 = sext i8 %96 to i32
  %98 = icmp slt i32 %97, 48
  br i1 %98, label %99, label %119

99:                                               ; preds = %94
  %100 = load ptr, ptr %11, align 8
  %101 = load i8, ptr %100, align 1
  %102 = sext i8 %101 to i32
  %103 = icmp ne i32 %102, 45
  br i1 %103, label %104, label %105

104:                                              ; preds = %99
  store i1 false, ptr %7, align 1
  br label %124

105:                                              ; preds = %99
  %106 = load ptr, ptr %11, align 8
  %107 = getelementptr inbounds i8, ptr %106, i32 1
  store ptr %107, ptr %11, align 8
  %108 = load ptr, ptr %11, align 8
  %109 = load i8, ptr %108, align 1
  %110 = sext i8 %109 to i32
  %111 = icmp sgt i32 %110, 57
  br i1 %111, label %117, label %112

112:                                              ; preds = %105
  %113 = load ptr, ptr %11, align 8
  %114 = load i8, ptr %113, align 1
  %115 = sext i8 %114 to i32
  %116 = icmp slt i32 %115, 48
  br i1 %116, label %117, label %118

117:                                              ; preds = %112, %105
  store i1 false, ptr %7, align 1
  br label %124

118:                                              ; preds = %112
  br label %119

119:                                              ; preds = %118, %94
  %120 = load ptr, ptr %8, align 8
  %121 = load i64, ptr %9, align 8
  %122 = load ptr, ptr %10, align 8
  %123 = call zeroext i1 @_zend_handle_numeric_str_ex(ptr noundef %120, i64 noundef %121, ptr noundef %122) #10
  store i1 %123, ptr %7, align 1
  br label %124

124:                                              ; preds = %119, %117, %104, %93
  %125 = load i1, ptr %7, align 1
  br i1 %125, label %126, label %133

126:                                              ; preds = %124
  %127 = load ptr, ptr %13, align 8
  %128 = load i64, ptr %15, align 8
  store ptr %127, ptr %5, align 8
  store i64 %128, ptr %6, align 8
  %129 = load ptr, ptr %5, align 8
  %130 = load i64, ptr %6, align 8
  %131 = call ptr @zend_hash_index_find(ptr noundef %129, i64 noundef %130) #10
  %132 = icmp ne ptr %131, null
  store i1 %132, ptr %12, align 1
  br label %140

133:                                              ; preds = %124
  %134 = load ptr, ptr %13, align 8
  %135 = load ptr, ptr %14, align 8
  store ptr %134, ptr %3, align 8
  store ptr %135, ptr %4, align 8
  %136 = load ptr, ptr %3, align 8
  %137 = load ptr, ptr %4, align 8
  %138 = call ptr @zend_hash_find(ptr noundef %136, ptr noundef %137) #10
  %139 = icmp ne ptr %138, null
  store i1 %139, ptr %12, align 1
  br label %140

140:                                              ; preds = %133, %126
  %141 = load i1, ptr %12, align 1
  %142 = select i1 %141, i32 3, i32 2
  %143 = load ptr, ptr %17, align 8
  %144 = getelementptr inbounds %struct._zval_struct, ptr %143, i32 0, i32 1
  store i32 %142, ptr %144, align 8
  br label %145

145:                                              ; preds = %140
  br label %146

146:                                              ; preds = %145, %70, %44, %28
  ret void
}