; Function Attrs: nounwind uwtable
define hidden void @zim_CachingIterator_offsetExists(ptr nocapture noundef readonly %0, ptr nocapture noundef writeonly %1) #0 {
  %3 = alloca i64, align 8
  %4 = alloca ptr, align 8
  %5 = getelementptr inbounds i8, ptr %0, i64 44
  %6 = load i32, ptr %5, align 4
  %7 = call i32 (i32, ptr, ...) @zend_parse_parameters(i32 noundef %6, ptr noundef nonnull @.str.8, ptr noundef nonnull %4) #10
  %8 = icmp eq i32 %7, -1
  br i1 %8, label %9, label %12

9:                                                ; preds = %2
  %10 = load ptr, ptr getelementptr inbounds (%struct._zend_executor_globals, ptr @executor_globals, i64 0, i32 50), align 8
  %11 = icmp ne ptr %10, null
  call void @llvm.assume(i1 %11)
  br label %60

12:                                               ; preds = %2
  %13 = getelementptr inbounds i8, ptr %0, i64 32
  %14 = load ptr, ptr %13, align 8
  %15 = getelementptr inbounds i8, ptr %14, i64 -56
  %16 = load i32, ptr %15, align 8
  %17 = icmp eq i32 %16, -1
  br i1 %17, label %18, label %21

18:                                               ; preds = %12
  call void (ptr, ptr, ...) @zend_throw_error(ptr noundef null, ptr noundef nonnull @.str) #10
  %19 = load ptr, ptr getelementptr inbounds (%struct._zend_executor_globals, ptr @executor_globals, i64 0, i32 50), align 8
  %20 = icmp ne ptr %19, null
  call void @llvm.assume(i1 %20)
  br label %60

21:                                               ; preds = %12
  %22 = getelementptr inbounds i8, ptr %14, i64 -48
  %23 = load i64, ptr %22, align 8
  %24 = and i64 %23, 256
  %.not = icmp eq i64 %24, 0
  br i1 %.not, label %25, label %35

25:                                               ; preds = %21
  %26 = load ptr, ptr @spl_ce_BadMethodCallException, align 8
  %27 = getelementptr inbounds i8, ptr %14, i64 16
  %28 = load ptr, ptr %27, align 8
  %29 = getelementptr inbounds i8, ptr %28, i64 8
  %30 = load ptr, ptr %29, align 8
  %31 = getelementptr inbounds i8, ptr %30, i64 24
  %32 = call ptr (ptr, i64, ptr, ...) @zend_throw_exception_ex(ptr noundef %26, i64 noundef 0, ptr noundef nonnull @.str.15, ptr noundef nonnull %31) #10
  %33 = load ptr, ptr getelementptr inbounds (%struct._zend_executor_globals, ptr @executor_globals, i64 0, i32 50), align 8
  %34 = icmp ne ptr %33, null
  call void @llvm.assume(i1 %34)
  br label %60

35:                                               ; preds = %21
  %36 = getelementptr inbounds i8, ptr %14, i64 -16
  %37 = load ptr, ptr %36, align 8
  %38 = load ptr, ptr %4, align 8
  %39 = getelementptr inbounds i8, ptr %38, i64 24
  %40 = getelementptr inbounds i8, ptr %38, i64 16
  %41 = load i64, ptr %40, align 8
  %42 = load i8, ptr %39, align 1
  %43 = icmp sgt i8 %42, 57
  br i1 %43, label %.critedge, label %44

44:                                               ; preds = %35
  %45 = icmp slt i8 %42, 48
  br i1 %45, label %46, label %51

46:                                               ; preds = %44
  %.not31 = icmp eq i8 %42, 45
  br i1 %.not31, label %47, label %.critedge

47:                                               ; preds = %46
  %48 = getelementptr inbounds i8, ptr %38, i64 25
  %49 = load i8, ptr %48, align 1
  %50 = add i8 %49, -58
  %or.cond = icmp ult i8 %50, -10
  br i1 %or.cond, label %.critedge, label %51

51:                                               ; preds = %47, %44
  %52 = call zeroext i1 @_zend_handle_numeric_str_ex(ptr noundef nonnull %39, i64 noundef %41, ptr noundef nonnull %3) #10
  br i1 %52, label %53, label %.critedge

53:                                               ; preds = %51
  %54 = load i64, ptr %3, align 8
  %55 = call ptr @zend_hash_index_find(ptr noundef %37, i64 noundef %54) #10
  br label %57

.critedge:                                        ; preds = %35, %46, %47, %51
  %56 = call ptr @zend_hash_find(ptr noundef %37, ptr noundef nonnull %38) #10
  br label %57

57:                                               ; preds = %.critedge, %53
  %.028.in = phi ptr [ %55, %53 ], [ %56, %.critedge ]
  %.028.not = icmp eq ptr %.028.in, null
  %58 = select i1 %.028.not, i32 2, i32 3
  %59 = getelementptr inbounds i8, ptr %1, i64 8
  store i32 %58, ptr %59, align 8
  br label %60

60:                                               ; preds = %57, %25, %18, %9
  ret void
}